target datalayout = "e-m:e-p270:32:32-p271:32:32-p272:64:64-i64:64-i128:128-f80:128-n8:16:32:64-S128"
target triple = "x86_64-pc-linux-gnu"

@color_range_names = internal constant [3 x ptr] [ptr @.str.283, ptr @.str.284, ptr @.str.285], align 16

; Function Attrs: nounwind uwtable
define i32 @av_color_range_from_name(ptr noundef %0) #0 {
  %2 = alloca i32, align 4
  %3 = alloca ptr, align 8
  %4 = alloca i32, align 4
  %5 = alloca i32, align 4
  store ptr %0, ptr %3, align 8, !tbaa !29
  call void @llvm.lifetime.start.p0(i64 4, ptr %4) #8
  store i32 0, ptr %4, align 4, !tbaa !15
  br label %6

6:                                                ; preds = %21, %1
  %7 = load i32, ptr %4, align 4, !tbaa !15
  %8 = sext i32 %7 to i64
  %9 = icmp ult i64 %8, 3
  br i1 %9, label %10, label %24

10:                                               ; preds = %6
  %11 = load ptr, ptr %3, align 8, !tbaa !29
  %12 = load i32, ptr %4, align 4, !tbaa !15
  %13 = sext i32 %12 to i64
  %14 = getelementptr inbounds [3 x ptr], ptr @color_range_names, i64 0, i64 %13
  %15 = load ptr, ptr %14, align 8, !tbaa !29
  %16 = call i32 @av_strstart(ptr noundef %11, ptr noundef %15, ptr noundef null)
  %17 = icmp ne i32 %16, 0
  br i1 %17, label %18, label %20

18:                                               ; preds = %10
  %19 = load i32, ptr %4, align 4, !tbaa !15
  store i32 %19, ptr %2, align 4
  store i32 1, ptr %5, align 4
  br label %25

20:                                               ; preds = %10
  br label %21

21:                                               ; preds = %20
  %22 = load i32, ptr %4, align 4, !tbaa !15
  %23 = add nsw i32 %22, 1
  store i32 %23, ptr %4, align 4, !tbaa !15
  br label %6, !llvm.loop !57

24:                                               ; preds = %6
  store i32 -22, ptr %2, align 4
  store i32 1, ptr %5, align 4
  br label %25

25:                                               ; preds = %24, %18
  call void @llvm.lifetime.end.p0(i64 4, ptr %4) #8
  %26 = load i32, ptr %2, align 4
  ret i32 %26
}